
vrs_cvicenie2.elf:     file format elf32-littlearm

Sections:
Idx Name          Size      VMA       LMA       File off  Algn
  0 .isr_vector   0000013c  08000000  08000000  00010000  2**0
                  CONTENTS, ALLOC, LOAD, READONLY, DATA
  1 .text         0000044c  0800013c  0800013c  0001013c  2**2
                  CONTENTS, ALLOC, LOAD, READONLY, CODE
  2 .rodata       00000000  08000588  08000590  00010590  2**0
                  CONTENTS, ALLOC, LOAD, DATA
  3 .init_array   00000004  08000588  08000588  00010588  2**2
                  CONTENTS, ALLOC, LOAD, DATA
  4 .fini_array   00000004  0800058c  0800058c  0001058c  2**2
                  CONTENTS, ALLOC, LOAD, DATA
  5 .data         00000000  20000000  20000000  00010590  2**0
                  CONTENTS, ALLOC, LOAD, DATA
  6 .bss          0000001c  20000000  08000590  00020000  2**2
                  ALLOC
  7 ._user_heap_stack 00000400  2000001c  08000590  0002001c  2**0
                  ALLOC
  8 .ARM.attributes 00000029  00000000  00000000  00010590  2**0
                  CONTENTS, READONLY
  9 .debug_info   00001426  00000000  00000000  000105b9  2**0
                  CONTENTS, READONLY, DEBUGGING
 10 .debug_abbrev 000004f4  00000000  00000000  000119df  2**0
                  CONTENTS, READONLY, DEBUGGING
 11 .debug_aranges 00000238  00000000  00000000  00011ed8  2**3
                  CONTENTS, READONLY, DEBUGGING
 12 .debug_ranges 000001f0  00000000  00000000  00012110  2**3
                  CONTENTS, READONLY, DEBUGGING
 13 .debug_line   00000b91  00000000  00000000  00012300  2**0
                  CONTENTS, READONLY, DEBUGGING
 14 .debug_str    0000091b  00000000  00000000  00012e91  2**0
                  CONTENTS, READONLY, DEBUGGING
 15 .comment      0000007e  00000000  00000000  000137ac  2**0
                  CONTENTS, READONLY
 16 .debug_frame  00000830  00000000  00000000  0001382c  2**2
                  CONTENTS, READONLY, DEBUGGING
 17 .stabstr      0000003f  00000000  00000000  0001405c  2**0
                  CONTENTS, READONLY, DEBUGGING

Disassembly of section .text:

0800013c <__do_global_dtors_aux>:
 800013c:	b510      	push	{r4, lr}
 800013e:	4c05      	ldr	r4, [pc, #20]	; (8000154 <__do_global_dtors_aux+0x18>)
 8000140:	7823      	ldrb	r3, [r4, #0]
 8000142:	b933      	cbnz	r3, 8000152 <__do_global_dtors_aux+0x16>
 8000144:	4b04      	ldr	r3, [pc, #16]	; (8000158 <__do_global_dtors_aux+0x1c>)
 8000146:	b113      	cbz	r3, 800014e <__do_global_dtors_aux+0x12>
 8000148:	4804      	ldr	r0, [pc, #16]	; (800015c <__do_global_dtors_aux+0x20>)
 800014a:	f3af 8000 	nop.w
 800014e:	2301      	movs	r3, #1
 8000150:	7023      	strb	r3, [r4, #0]
 8000152:	bd10      	pop	{r4, pc}
 8000154:	20000000 	.word	0x20000000
 8000158:	00000000 	.word	0x00000000
 800015c:	08000570 	.word	0x08000570

08000160 <frame_dummy>:
 8000160:	b508      	push	{r3, lr}
 8000162:	4b03      	ldr	r3, [pc, #12]	; (8000170 <frame_dummy+0x10>)
 8000164:	b11b      	cbz	r3, 800016e <frame_dummy+0xe>
 8000166:	4903      	ldr	r1, [pc, #12]	; (8000174 <frame_dummy+0x14>)
 8000168:	4803      	ldr	r0, [pc, #12]	; (8000178 <frame_dummy+0x18>)
 800016a:	f3af 8000 	nop.w
 800016e:	bd08      	pop	{r3, pc}
 8000170:	00000000 	.word	0x00000000
 8000174:	20000004 	.word	0x20000004
 8000178:	08000570 	.word	0x08000570

0800017c <RCC_AHBPeriphClockCmd>:
  * @param  NewState: new state of the specified peripheral clock.
  *         This parameter can be: ENABLE or DISABLE.
  * @retval None
  */
void RCC_AHBPeriphClockCmd(uint32_t RCC_AHBPeriph, FunctionalState NewState)
{
 800017c:	b480      	push	{r7}
 800017e:	b083      	sub	sp, #12
 8000180:	af00      	add	r7, sp, #0
 8000182:	6078      	str	r0, [r7, #4]
 8000184:	460b      	mov	r3, r1
 8000186:	70fb      	strb	r3, [r7, #3]
  /* Check the parameters */
  assert_param(IS_RCC_AHB_PERIPH(RCC_AHBPeriph));
  assert_param(IS_FUNCTIONAL_STATE(NewState));
  
  if (NewState != DISABLE)
 8000188:	78fb      	ldrb	r3, [r7, #3]
 800018a:	2b00      	cmp	r3, #0
 800018c:	d006      	beq.n	800019c <RCC_AHBPeriphClockCmd+0x20>
  {
    RCC->AHBENR |= RCC_AHBPeriph;
 800018e:	4909      	ldr	r1, [pc, #36]	; (80001b4 <RCC_AHBPeriphClockCmd+0x38>)
 8000190:	4b08      	ldr	r3, [pc, #32]	; (80001b4 <RCC_AHBPeriphClockCmd+0x38>)
 8000192:	69da      	ldr	r2, [r3, #28]
 8000194:	687b      	ldr	r3, [r7, #4]
 8000196:	4313      	orrs	r3, r2
 8000198:	61cb      	str	r3, [r1, #28]
  }
  else
  {
    RCC->AHBENR &= ~RCC_AHBPeriph;
  }
}
 800019a:	e006      	b.n	80001aa <RCC_AHBPeriphClockCmd+0x2e>
  {
    RCC->AHBENR |= RCC_AHBPeriph;
  }
  else
  {
    RCC->AHBENR &= ~RCC_AHBPeriph;
 800019c:	4905      	ldr	r1, [pc, #20]	; (80001b4 <RCC_AHBPeriphClockCmd+0x38>)
 800019e:	4b05      	ldr	r3, [pc, #20]	; (80001b4 <RCC_AHBPeriphClockCmd+0x38>)
 80001a0:	69da      	ldr	r2, [r3, #28]
 80001a2:	687b      	ldr	r3, [r7, #4]
 80001a4:	43db      	mvns	r3, r3
 80001a6:	4013      	ands	r3, r2
 80001a8:	61cb      	str	r3, [r1, #28]
  }
}
 80001aa:	bf00      	nop
 80001ac:	370c      	adds	r7, #12
 80001ae:	46bd      	mov	sp, r7
 80001b0:	bc80      	pop	{r7}
 80001b2:	4770      	bx	lr
 80001b4:	40023800 	.word	0x40023800

080001b8 <delay>:
/* Private macro */
/* Private variables */
/* Private function prototypes */
/* Private functions */
void delay(uint32_t cas)
{
 80001b8:	b480      	push	{r7}
 80001ba:	b085      	sub	sp, #20
 80001bc:	af00      	add	r7, sp, #0
 80001be:	6078      	str	r0, [r7, #4]
	uint32_t i;
	for(i=0;i<cas;i++)
 80001c0:	2300      	movs	r3, #0
 80001c2:	60fb      	str	r3, [r7, #12]
 80001c4:	e002      	b.n	80001cc <delay+0x14>
 80001c6:	68fb      	ldr	r3, [r7, #12]
 80001c8:	3301      	adds	r3, #1
 80001ca:	60fb      	str	r3, [r7, #12]
 80001cc:	68fa      	ldr	r2, [r7, #12]
 80001ce:	687b      	ldr	r3, [r7, #4]
 80001d0:	429a      	cmp	r2, r3
 80001d2:	d3f8      	bcc.n	80001c6 <delay+0xe>
	{

	}
}
 80001d4:	bf00      	nop
 80001d6:	3714      	adds	r7, #20
 80001d8:	46bd      	mov	sp, r7
 80001da:	bc80      	pop	{r7}
 80001dc:	4770      	bx	lr
 80001de:	bf00      	nop

080001e0 <main>:
**  Abstract: main program
**
**===========================================================================
*/
int main(void)
{
 80001e0:	b580      	push	{r7, lr}
 80001e2:	af00      	add	r7, sp, #0
	uint8_t button;

	RCC_AHBPeriphClockCmd(RCC_AHBPeriph_GPIOA, ENABLE);
 80001e4:	2101      	movs	r1, #1
 80001e6:	2001      	movs	r0, #1
 80001e8:	f7ff ffc8 	bl	800017c <RCC_AHBPeriphClockCmd>
	RCC_AHBPeriphClockCmd(RCC_AHBPeriph_GPIOC, ENABLE);
 80001ec:	2101      	movs	r1, #1
 80001ee:	2004      	movs	r0, #4
 80001f0:	f7ff ffc4 	bl	800017c <RCC_AHBPeriphClockCmd>

	    GPIOA->MODER |=(0b01)<<(5*2);
 80001f4:	4a3a      	ldr	r2, [pc, #232]	; (80002e0 <main+0x100>)
 80001f6:	4b3a      	ldr	r3, [pc, #232]	; (80002e0 <main+0x100>)
 80001f8:	681b      	ldr	r3, [r3, #0]
 80001fa:	f443 6380 	orr.w	r3, r3, #1024	; 0x400
 80001fe:	6013      	str	r3, [r2, #0]
		GPIOA->OTYPER &= ~((0b1)<<5);
 8000200:	4a37      	ldr	r2, [pc, #220]	; (80002e0 <main+0x100>)
 8000202:	4b37      	ldr	r3, [pc, #220]	; (80002e0 <main+0x100>)
 8000204:	889b      	ldrh	r3, [r3, #4]
 8000206:	b29b      	uxth	r3, r3
 8000208:	f023 0320 	bic.w	r3, r3, #32
 800020c:	b29b      	uxth	r3, r3
 800020e:	8093      	strh	r3, [r2, #4]
		GPIOA->PUPDR |= (0b01)<<(5*2);
 8000210:	4a33      	ldr	r2, [pc, #204]	; (80002e0 <main+0x100>)
 8000212:	4b33      	ldr	r3, [pc, #204]	; (80002e0 <main+0x100>)
 8000214:	68db      	ldr	r3, [r3, #12]
 8000216:	f443 6380 	orr.w	r3, r3, #1024	; 0x400
 800021a:	60d3      	str	r3, [r2, #12]
		GPIOA->OSPEEDR |= (0b11)<<(5*2);
 800021c:	4a30      	ldr	r2, [pc, #192]	; (80002e0 <main+0x100>)
 800021e:	4b30      	ldr	r3, [pc, #192]	; (80002e0 <main+0x100>)
 8000220:	689b      	ldr	r3, [r3, #8]
 8000222:	f443 6340 	orr.w	r3, r3, #3072	; 0xc00
 8000226:	6093      	str	r3, [r2, #8]

		//nastavenie vstupu pre button
		GPIOC->MODER &= ~((0b11)<<(13*2));
 8000228:	4a2e      	ldr	r2, [pc, #184]	; (80002e4 <main+0x104>)
 800022a:	4b2e      	ldr	r3, [pc, #184]	; (80002e4 <main+0x104>)
 800022c:	681b      	ldr	r3, [r3, #0]
 800022e:	f023 6340 	bic.w	r3, r3, #201326592	; 0xc000000
 8000232:	6013      	str	r3, [r2, #0]
		GPIOC->OTYPER &= ~((0b1)<<13);
 8000234:	4a2b      	ldr	r2, [pc, #172]	; (80002e4 <main+0x104>)
 8000236:	4b2b      	ldr	r3, [pc, #172]	; (80002e4 <main+0x104>)
 8000238:	889b      	ldrh	r3, [r3, #4]
 800023a:	b29b      	uxth	r3, r3
 800023c:	f423 5300 	bic.w	r3, r3, #8192	; 0x2000
 8000240:	b29b      	uxth	r3, r3
 8000242:	8093      	strh	r3, [r2, #4]
		GPIOC->PUPDR &=  ~(0b11<<(13*2));
 8000244:	4a27      	ldr	r2, [pc, #156]	; (80002e4 <main+0x104>)
 8000246:	4b27      	ldr	r3, [pc, #156]	; (80002e4 <main+0x104>)
 8000248:	68db      	ldr	r3, [r3, #12]
 800024a:	f023 6340 	bic.w	r3, r3, #201326592	; 0xc000000
 800024e:	60d3      	str	r3, [r2, #12]

		GPIOA->ODR |= 0b1<<5;
 8000250:	4a23      	ldr	r2, [pc, #140]	; (80002e0 <main+0x100>)
 8000252:	4b23      	ldr	r3, [pc, #140]	; (80002e0 <main+0x100>)
 8000254:	8a9b      	ldrh	r3, [r3, #20]
 8000256:	b29b      	uxth	r3, r3
 8000258:	f043 0320 	orr.w	r3, r3, #32
 800025c:	b29b      	uxth	r3, r3
 800025e:	8293      	strh	r3, [r2, #20]
		GPIOA->ODR &= ~(0b1<<5);
 8000260:	4a1f      	ldr	r2, [pc, #124]	; (80002e0 <main+0x100>)
 8000262:	4b1f      	ldr	r3, [pc, #124]	; (80002e0 <main+0x100>)
 8000264:	8a9b      	ldrh	r3, [r3, #20]
 8000266:	b29b      	uxth	r3, r3
 8000268:	f023 0320 	bic.w	r3, r3, #32
 800026c:	b29b      	uxth	r3, r3
 800026e:	8293      	strh	r3, [r2, #20]
		GPIOA->BSRRL |= 0b1<<5;
 8000270:	4a1b      	ldr	r2, [pc, #108]	; (80002e0 <main+0x100>)
 8000272:	4b1b      	ldr	r3, [pc, #108]	; (80002e0 <main+0x100>)
 8000274:	8b1b      	ldrh	r3, [r3, #24]
 8000276:	b29b      	uxth	r3, r3
 8000278:	f043 0320 	orr.w	r3, r3, #32
 800027c:	b29b      	uxth	r3, r3
 800027e:	8313      	strh	r3, [r2, #24]
		GPIOA->BSRRH |= 0b1<<5;
 8000280:	4a17      	ldr	r2, [pc, #92]	; (80002e0 <main+0x100>)
 8000282:	4b17      	ldr	r3, [pc, #92]	; (80002e0 <main+0x100>)
 8000284:	8b5b      	ldrh	r3, [r3, #26]
 8000286:	b29b      	uxth	r3, r3
 8000288:	f043 0320 	orr.w	r3, r3, #32
 800028c:	b29b      	uxth	r3, r3
 800028e:	8353      	strh	r3, [r2, #26]

		GPIOA->ODR ^= 0b1<<5; //zmena stavu LED (zapnute)
 8000290:	4a13      	ldr	r2, [pc, #76]	; (80002e0 <main+0x100>)
 8000292:	4b13      	ldr	r3, [pc, #76]	; (80002e0 <main+0x100>)
 8000294:	8a9b      	ldrh	r3, [r3, #20]
 8000296:	b29b      	uxth	r3, r3
 8000298:	f083 0320 	eor.w	r3, r3, #32
 800029c:	b29b      	uxth	r3, r3
 800029e:	8293      	strh	r3, [r2, #20]
		GPIOA->ODR ^= 0b1<<5; //zmena stavu LED (vypnute)
 80002a0:	4a0f      	ldr	r2, [pc, #60]	; (80002e0 <main+0x100>)
 80002a2:	4b0f      	ldr	r3, [pc, #60]	; (80002e0 <main+0x100>)
 80002a4:	8a9b      	ldrh	r3, [r3, #20]
 80002a6:	b29b      	uxth	r3, r3
 80002a8:	f083 0320 	eor.w	r3, r3, #32
 80002ac:	b29b      	uxth	r3, r3
 80002ae:	8293      	strh	r3, [r2, #20]
  while (1)
  {
	 // button = (GPIOC->IDR & (0b1<<13))>>13;

	     // zapni LED
		  GPIOA->ODR |= 0b1<<5;
 80002b0:	4a0b      	ldr	r2, [pc, #44]	; (80002e0 <main+0x100>)
 80002b2:	4b0b      	ldr	r3, [pc, #44]	; (80002e0 <main+0x100>)
 80002b4:	8a9b      	ldrh	r3, [r3, #20]
 80002b6:	b29b      	uxth	r3, r3
 80002b8:	f043 0320 	orr.w	r3, r3, #32
 80002bc:	b29b      	uxth	r3, r3
 80002be:	8293      	strh	r3, [r2, #20]
		  delay(1000000);
 80002c0:	4809      	ldr	r0, [pc, #36]	; (80002e8 <main+0x108>)
 80002c2:	f7ff ff79 	bl	80001b8 <delay>
	  	 // vypni LED
		  GPIOA->ODR &= ~(0b1<<5);
 80002c6:	4a06      	ldr	r2, [pc, #24]	; (80002e0 <main+0x100>)
 80002c8:	4b05      	ldr	r3, [pc, #20]	; (80002e0 <main+0x100>)
 80002ca:	8a9b      	ldrh	r3, [r3, #20]
 80002cc:	b29b      	uxth	r3, r3
 80002ce:	f023 0320 	bic.w	r3, r3, #32
 80002d2:	b29b      	uxth	r3, r3
 80002d4:	8293      	strh	r3, [r2, #20]
	  	  delay(1000000);
 80002d6:	4804      	ldr	r0, [pc, #16]	; (80002e8 <main+0x108>)
 80002d8:	f7ff ff6e 	bl	80001b8 <delay>
  }
 80002dc:	e7e8      	b.n	80002b0 <main+0xd0>
 80002de:	bf00      	nop
 80002e0:	40020000 	.word	0x40020000
 80002e4:	40020800 	.word	0x40020800
 80002e8:	000f4240 	.word	0x000f4240

080002ec <Reset_Handler>:

  .section .text.Reset_Handler
  .weak Reset_Handler
  .type Reset_Handler, %function
Reset_Handler:
  ldr   sp, =_estack    /* Atollic update: set stack pointer */
 80002ec:	f8df d034 	ldr.w	sp, [pc, #52]	; 8000324 <LoopFillZerobss+0x14>

/* Copy the data segment initializers from flash to SRAM */
  movs r1, #0
 80002f0:	2100      	movs	r1, #0
  b LoopCopyDataInit
 80002f2:	e003      	b.n	80002fc <LoopCopyDataInit>

080002f4 <CopyDataInit>:

CopyDataInit:
  ldr r3, =_sidata
 80002f4:	4b0c      	ldr	r3, [pc, #48]	; (8000328 <LoopFillZerobss+0x18>)
  ldr r3, [r3, r1]
 80002f6:	585b      	ldr	r3, [r3, r1]
  str r3, [r0, r1]
 80002f8:	5043      	str	r3, [r0, r1]
  adds r1, r1, #4
 80002fa:	3104      	adds	r1, #4

080002fc <LoopCopyDataInit>:

LoopCopyDataInit:
  ldr r0, =_sdata
 80002fc:	480b      	ldr	r0, [pc, #44]	; (800032c <LoopFillZerobss+0x1c>)
  ldr r3, =_edata
 80002fe:	4b0c      	ldr	r3, [pc, #48]	; (8000330 <LoopFillZerobss+0x20>)
  adds r2, r0, r1
 8000300:	1842      	adds	r2, r0, r1
  cmp r2, r3
 8000302:	429a      	cmp	r2, r3
  bcc CopyDataInit
 8000304:	d3f6      	bcc.n	80002f4 <CopyDataInit>
  ldr r2, =_sbss
 8000306:	4a0b      	ldr	r2, [pc, #44]	; (8000334 <LoopFillZerobss+0x24>)
  b LoopFillZerobss
 8000308:	e002      	b.n	8000310 <LoopFillZerobss>

0800030a <FillZerobss>:
/* Zero fill the bss segment. */
FillZerobss:
  movs r3, #0
 800030a:	2300      	movs	r3, #0
  str r3, [r2], #4
 800030c:	f842 3b04 	str.w	r3, [r2], #4

08000310 <LoopFillZerobss>:

LoopFillZerobss:
  ldr r3, = _ebss
 8000310:	4b09      	ldr	r3, [pc, #36]	; (8000338 <LoopFillZerobss+0x28>)
  cmp r2, r3
 8000312:	429a      	cmp	r2, r3
  bcc FillZerobss
 8000314:	d3f9      	bcc.n	800030a <FillZerobss>

/* Call the clock system intitialization function.*/
    bl  SystemInit
 8000316:	f000 f841 	bl	800039c <SystemInit>
/* Call static constructors */
    bl __libc_init_array
 800031a:	f000 f903 	bl	8000524 <__libc_init_array>
/* Call the application's entry point.*/
  bl main
 800031e:	f7ff ff5f 	bl	80001e0 <main>
  bx lr
 8000322:	4770      	bx	lr

  .section .text.Reset_Handler
  .weak Reset_Handler
  .type Reset_Handler, %function
Reset_Handler:
  ldr   sp, =_estack    /* Atollic update: set stack pointer */
 8000324:	20014000 	.word	0x20014000
/* Copy the data segment initializers from flash to SRAM */
  movs r1, #0
  b LoopCopyDataInit

CopyDataInit:
  ldr r3, =_sidata
 8000328:	08000590 	.word	0x08000590
  ldr r3, [r3, r1]
  str r3, [r0, r1]
  adds r1, r1, #4

LoopCopyDataInit:
  ldr r0, =_sdata
 800032c:	20000000 	.word	0x20000000
  ldr r3, =_edata
 8000330:	20000000 	.word	0x20000000
  adds r2, r0, r1
  cmp r2, r3
  bcc CopyDataInit
  ldr r2, =_sbss
 8000334:	20000000 	.word	0x20000000
FillZerobss:
  movs r3, #0
  str r3, [r2], #4

LoopFillZerobss:
  ldr r3, = _ebss
 8000338:	2000001c 	.word	0x2000001c

0800033c <ADC1_IRQHandler>:
 * @retval : None
*/
    .section .text.Default_Handler,"ax",%progbits
Default_Handler:
Infinite_Loop:
  b Infinite_Loop
 800033c:	e7fe      	b.n	800033c <ADC1_IRQHandler>
	...

08000340 <NMI_Handler>:
  * @brief  This function handles NMI exception.
  * @param  None
  * @retval None
  */
void NMI_Handler(void)
{
 8000340:	b480      	push	{r7}
 8000342:	af00      	add	r7, sp, #0
}
 8000344:	bf00      	nop
 8000346:	46bd      	mov	sp, r7
 8000348:	bc80      	pop	{r7}
 800034a:	4770      	bx	lr

0800034c <HardFault_Handler>:
  * @brief  This function handles Hard Fault exception.
  * @param  None
  * @retval None
  */
void HardFault_Handler(void)
{
 800034c:	b480      	push	{r7}
 800034e:	af00      	add	r7, sp, #0
  /* Go to infinite loop when Hard Fault exception occurs */
  while (1)
  {
  }
 8000350:	e7fe      	b.n	8000350 <HardFault_Handler+0x4>
 8000352:	bf00      	nop

08000354 <MemManage_Handler>:
  * @brief  This function handles Memory Manage exception.
  * @param  None
  * @retval None
  */
void MemManage_Handler(void)
{
 8000354:	b480      	push	{r7}
 8000356:	af00      	add	r7, sp, #0
  /* Go to infinite loop when Memory Manage exception occurs */
  while (1)
  {
  }
 8000358:	e7fe      	b.n	8000358 <MemManage_Handler+0x4>
 800035a:	bf00      	nop

0800035c <BusFault_Handler>:
  * @brief  This function handles Bus Fault exception.
  * @param  None
  * @retval None
  */
void BusFault_Handler(void)
{
 800035c:	b480      	push	{r7}
 800035e:	af00      	add	r7, sp, #0
  /* Go to infinite loop when Bus Fault exception occurs */
  while (1)
  {
  }
 8000360:	e7fe      	b.n	8000360 <BusFault_Handler+0x4>
 8000362:	bf00      	nop

08000364 <UsageFault_Handler>:
  * @brief  This function handles Usage Fault exception.
  * @param  None
  * @retval None
  */
void UsageFault_Handler(void)
{
 8000364:	b480      	push	{r7}
 8000366:	af00      	add	r7, sp, #0
  /* Go to infinite loop when Usage Fault exception occurs */
  while (1)
  {
  }
 8000368:	e7fe      	b.n	8000368 <UsageFault_Handler+0x4>
 800036a:	bf00      	nop

0800036c <SVC_Handler>:
  * @brief  This function handles SVCall exception.
  * @param  None
  * @retval None
  */
void SVC_Handler(void)
{
 800036c:	b480      	push	{r7}
 800036e:	af00      	add	r7, sp, #0
}
 8000370:	bf00      	nop
 8000372:	46bd      	mov	sp, r7
 8000374:	bc80      	pop	{r7}
 8000376:	4770      	bx	lr

08000378 <DebugMon_Handler>:
  * @brief  This function handles Debug Monitor exception.
  * @param  None
  * @retval None
  */
void DebugMon_Handler(void)
{
 8000378:	b480      	push	{r7}
 800037a:	af00      	add	r7, sp, #0
}
 800037c:	bf00      	nop
 800037e:	46bd      	mov	sp, r7
 8000380:	bc80      	pop	{r7}
 8000382:	4770      	bx	lr

08000384 <PendSV_Handler>:
  * @brief  This function handles PendSVC exception.
  * @param  None
  * @retval None
  */
void PendSV_Handler(void)
{
 8000384:	b480      	push	{r7}
 8000386:	af00      	add	r7, sp, #0
}
 8000388:	bf00      	nop
 800038a:	46bd      	mov	sp, r7
 800038c:	bc80      	pop	{r7}
 800038e:	4770      	bx	lr

08000390 <SysTick_Handler>:
  * @brief  This function handles SysTick Handler.
  * @param  None
  * @retval None
  */
void SysTick_Handler(void)
{
 8000390:	b480      	push	{r7}
 8000392:	af00      	add	r7, sp, #0
	/*  TimingDelay_Decrement(); */
#ifdef USE_STM32L_DISCOVERY
  TimingDelay_Decrement();
#endif
}
 8000394:	bf00      	nop
 8000396:	46bd      	mov	sp, r7
 8000398:	bc80      	pop	{r7}
 800039a:	4770      	bx	lr

0800039c <SystemInit>:
  *         SystemCoreClock variable.
  * @param  None
  * @retval None
  */
void SystemInit (void)
{
 800039c:	b580      	push	{r7, lr}
 800039e:	af00      	add	r7, sp, #0
  /*!< Set MSION bit */
  RCC->CR |= (uint32_t)0x00000100;
 80003a0:	4a15      	ldr	r2, [pc, #84]	; (80003f8 <SystemInit+0x5c>)
 80003a2:	4b15      	ldr	r3, [pc, #84]	; (80003f8 <SystemInit+0x5c>)
 80003a4:	681b      	ldr	r3, [r3, #0]
 80003a6:	f443 7380 	orr.w	r3, r3, #256	; 0x100
 80003aa:	6013      	str	r3, [r2, #0]

  /*!< Reset SW[1:0], HPRE[3:0], PPRE1[2:0], PPRE2[2:0], MCOSEL[2:0] and MCOPRE[2:0] bits */
  RCC->CFGR &= (uint32_t)0x88FFC00C;
 80003ac:	4912      	ldr	r1, [pc, #72]	; (80003f8 <SystemInit+0x5c>)
 80003ae:	4b12      	ldr	r3, [pc, #72]	; (80003f8 <SystemInit+0x5c>)
 80003b0:	689a      	ldr	r2, [r3, #8]
 80003b2:	4b12      	ldr	r3, [pc, #72]	; (80003fc <SystemInit+0x60>)
 80003b4:	4013      	ands	r3, r2
 80003b6:	608b      	str	r3, [r1, #8]
  
  /*!< Reset HSION, HSEON, CSSON and PLLON bits */
  RCC->CR &= (uint32_t)0xEEFEFFFE;
 80003b8:	4a0f      	ldr	r2, [pc, #60]	; (80003f8 <SystemInit+0x5c>)
 80003ba:	4b0f      	ldr	r3, [pc, #60]	; (80003f8 <SystemInit+0x5c>)
 80003bc:	681b      	ldr	r3, [r3, #0]
 80003be:	f023 5388 	bic.w	r3, r3, #285212672	; 0x11000000
 80003c2:	f023 1301 	bic.w	r3, r3, #65537	; 0x10001
 80003c6:	6013      	str	r3, [r2, #0]

  /*!< Reset HSEBYP bit */
  RCC->CR &= (uint32_t)0xFFFBFFFF;
 80003c8:	4a0b      	ldr	r2, [pc, #44]	; (80003f8 <SystemInit+0x5c>)
 80003ca:	4b0b      	ldr	r3, [pc, #44]	; (80003f8 <SystemInit+0x5c>)
 80003cc:	681b      	ldr	r3, [r3, #0]
 80003ce:	f423 2380 	bic.w	r3, r3, #262144	; 0x40000
 80003d2:	6013      	str	r3, [r2, #0]

  /*!< Reset PLLSRC, PLLMUL[3:0] and PLLDIV[1:0] bits */
  RCC->CFGR &= (uint32_t)0xFF02FFFF;
 80003d4:	4a08      	ldr	r2, [pc, #32]	; (80003f8 <SystemInit+0x5c>)
 80003d6:	4b08      	ldr	r3, [pc, #32]	; (80003f8 <SystemInit+0x5c>)
 80003d8:	689b      	ldr	r3, [r3, #8]
 80003da:	f423 037d 	bic.w	r3, r3, #16580608	; 0xfd0000
 80003de:	6093      	str	r3, [r2, #8]

  /*!< Disable all interrupts */
  RCC->CIR = 0x00000000;
 80003e0:	4b05      	ldr	r3, [pc, #20]	; (80003f8 <SystemInit+0x5c>)
 80003e2:	2200      	movs	r2, #0
 80003e4:	60da      	str	r2, [r3, #12]
#ifdef DATA_IN_ExtSRAM
  SystemInit_ExtMemCtl(); 
#endif /* DATA_IN_ExtSRAM */
    
  /* Configure the System clock frequency, AHB/APBx prescalers and Flash settings */
  SetSysClock();
 80003e6:	f000 f80d 	bl	8000404 <SetSysClock>

#ifdef VECT_TAB_SRAM
  SCB->VTOR = SRAM_BASE | VECT_TAB_OFFSET; /* Vector Table Relocation in Internal SRAM. */
#else
  SCB->VTOR = FLASH_BASE | VECT_TAB_OFFSET; /* Vector Table Relocation in Internal FLASH. */
 80003ea:	4b05      	ldr	r3, [pc, #20]	; (8000400 <SystemInit+0x64>)
 80003ec:	f04f 6200 	mov.w	r2, #134217728	; 0x8000000
 80003f0:	609a      	str	r2, [r3, #8]
#endif
}
 80003f2:	bf00      	nop
 80003f4:	bd80      	pop	{r7, pc}
 80003f6:	bf00      	nop
 80003f8:	40023800 	.word	0x40023800
 80003fc:	88ffc00c 	.word	0x88ffc00c
 8000400:	e000ed00 	.word	0xe000ed00

08000404 <SetSysClock>:
  *         is reset to the default reset state (done in SystemInit() function).
  * @param  None
  * @retval None
  */
static void SetSysClock(void)
{
 8000404:	b480      	push	{r7}
 8000406:	b083      	sub	sp, #12
 8000408:	af00      	add	r7, sp, #0
  __IO uint32_t StartUpCounter = 0, HSEStatus = 0;
 800040a:	2300      	movs	r3, #0
 800040c:	607b      	str	r3, [r7, #4]
 800040e:	2300      	movs	r3, #0
 8000410:	603b      	str	r3, [r7, #0]
  
  /* SYSCLK, HCLK, PCLK2 and PCLK1 configuration ---------------------------*/
  /* Enable HSE */
  RCC->CR |= ((uint32_t)RCC_CR_HSEON);
 8000412:	4a41      	ldr	r2, [pc, #260]	; (8000518 <SetSysClock+0x114>)
 8000414:	4b40      	ldr	r3, [pc, #256]	; (8000518 <SetSysClock+0x114>)
 8000416:	681b      	ldr	r3, [r3, #0]
 8000418:	f443 3380 	orr.w	r3, r3, #65536	; 0x10000
 800041c:	6013      	str	r3, [r2, #0]
 
  /* Wait till HSE is ready and if Time out is reached exit */
  do
  {
    HSEStatus = RCC->CR & RCC_CR_HSERDY;
 800041e:	4b3e      	ldr	r3, [pc, #248]	; (8000518 <SetSysClock+0x114>)
 8000420:	681b      	ldr	r3, [r3, #0]
 8000422:	f403 3300 	and.w	r3, r3, #131072	; 0x20000
 8000426:	603b      	str	r3, [r7, #0]
    StartUpCounter++;
 8000428:	687b      	ldr	r3, [r7, #4]
 800042a:	3301      	adds	r3, #1
 800042c:	607b      	str	r3, [r7, #4]
  } while((HSEStatus == 0) && (StartUpCounter != HSE_STARTUP_TIMEOUT));
 800042e:	683b      	ldr	r3, [r7, #0]
 8000430:	2b00      	cmp	r3, #0
 8000432:	d103      	bne.n	800043c <SetSysClock+0x38>
 8000434:	687b      	ldr	r3, [r7, #4]
 8000436:	f5b3 6fa0 	cmp.w	r3, #1280	; 0x500
 800043a:	d1f0      	bne.n	800041e <SetSysClock+0x1a>

  if ((RCC->CR & RCC_CR_HSERDY) != RESET)
 800043c:	4b36      	ldr	r3, [pc, #216]	; (8000518 <SetSysClock+0x114>)
 800043e:	681b      	ldr	r3, [r3, #0]
 8000440:	f403 3300 	and.w	r3, r3, #131072	; 0x20000
 8000444:	2b00      	cmp	r3, #0
 8000446:	d002      	beq.n	800044e <SetSysClock+0x4a>
  {
    HSEStatus = (uint32_t)0x01;
 8000448:	2301      	movs	r3, #1
 800044a:	603b      	str	r3, [r7, #0]
 800044c:	e001      	b.n	8000452 <SetSysClock+0x4e>
  }
  else
  {
    HSEStatus = (uint32_t)0x00;
 800044e:	2300      	movs	r3, #0
 8000450:	603b      	str	r3, [r7, #0]
  }
  
  if (HSEStatus == (uint32_t)0x01)
 8000452:	683b      	ldr	r3, [r7, #0]
 8000454:	2b01      	cmp	r3, #1
 8000456:	d15a      	bne.n	800050e <SetSysClock+0x10a>
  {
    /* Enable 64-bit access */
    FLASH->ACR |= FLASH_ACR_ACC64;
 8000458:	4a30      	ldr	r2, [pc, #192]	; (800051c <SetSysClock+0x118>)
 800045a:	4b30      	ldr	r3, [pc, #192]	; (800051c <SetSysClock+0x118>)
 800045c:	681b      	ldr	r3, [r3, #0]
 800045e:	f043 0304 	orr.w	r3, r3, #4
 8000462:	6013      	str	r3, [r2, #0]
    
    /* Enable Prefetch Buffer */
    FLASH->ACR |= FLASH_ACR_PRFTEN;
 8000464:	4a2d      	ldr	r2, [pc, #180]	; (800051c <SetSysClock+0x118>)
 8000466:	4b2d      	ldr	r3, [pc, #180]	; (800051c <SetSysClock+0x118>)
 8000468:	681b      	ldr	r3, [r3, #0]
 800046a:	f043 0302 	orr.w	r3, r3, #2
 800046e:	6013      	str	r3, [r2, #0]

    /* Flash 1 wait state */
    FLASH->ACR |= FLASH_ACR_LATENCY;
 8000470:	4a2a      	ldr	r2, [pc, #168]	; (800051c <SetSysClock+0x118>)
 8000472:	4b2a      	ldr	r3, [pc, #168]	; (800051c <SetSysClock+0x118>)
 8000474:	681b      	ldr	r3, [r3, #0]
 8000476:	f043 0301 	orr.w	r3, r3, #1
 800047a:	6013      	str	r3, [r2, #0]
    
    /* Power enable */
    RCC->APB1ENR |= RCC_APB1ENR_PWREN;
 800047c:	4a26      	ldr	r2, [pc, #152]	; (8000518 <SetSysClock+0x114>)
 800047e:	4b26      	ldr	r3, [pc, #152]	; (8000518 <SetSysClock+0x114>)
 8000480:	6a5b      	ldr	r3, [r3, #36]	; 0x24
 8000482:	f043 5380 	orr.w	r3, r3, #268435456	; 0x10000000
 8000486:	6253      	str	r3, [r2, #36]	; 0x24
  
    /* Select the Voltage Range 1 (1.8 V) */
    PWR->CR = PWR_CR_VOS_0;
 8000488:	4b25      	ldr	r3, [pc, #148]	; (8000520 <SetSysClock+0x11c>)
 800048a:	f44f 6200 	mov.w	r2, #2048	; 0x800
 800048e:	601a      	str	r2, [r3, #0]
  
    /* Wait Until the Voltage Regulator is ready */
    while((PWR->CSR & PWR_CSR_VOSF) != RESET)
 8000490:	bf00      	nop
 8000492:	4b23      	ldr	r3, [pc, #140]	; (8000520 <SetSysClock+0x11c>)
 8000494:	685b      	ldr	r3, [r3, #4]
 8000496:	f003 0310 	and.w	r3, r3, #16
 800049a:	2b00      	cmp	r3, #0
 800049c:	d1f9      	bne.n	8000492 <SetSysClock+0x8e>
    {
    }
        
    /* HCLK = SYSCLK /1*/
    RCC->CFGR |= (uint32_t)RCC_CFGR_HPRE_DIV1;
 800049e:	4a1e      	ldr	r2, [pc, #120]	; (8000518 <SetSysClock+0x114>)
 80004a0:	4b1d      	ldr	r3, [pc, #116]	; (8000518 <SetSysClock+0x114>)
 80004a2:	689b      	ldr	r3, [r3, #8]
 80004a4:	6093      	str	r3, [r2, #8]
  
    /* PCLK2 = HCLK /1*/
    RCC->CFGR |= (uint32_t)RCC_CFGR_PPRE2_DIV1;
 80004a6:	4a1c      	ldr	r2, [pc, #112]	; (8000518 <SetSysClock+0x114>)
 80004a8:	4b1b      	ldr	r3, [pc, #108]	; (8000518 <SetSysClock+0x114>)
 80004aa:	689b      	ldr	r3, [r3, #8]
 80004ac:	6093      	str	r3, [r2, #8]
    
    /* PCLK1 = HCLK /1*/
    RCC->CFGR |= (uint32_t)RCC_CFGR_PPRE1_DIV1;
 80004ae:	4a1a      	ldr	r2, [pc, #104]	; (8000518 <SetSysClock+0x114>)
 80004b0:	4b19      	ldr	r3, [pc, #100]	; (8000518 <SetSysClock+0x114>)
 80004b2:	689b      	ldr	r3, [r3, #8]
 80004b4:	6093      	str	r3, [r2, #8]
    
    /*  PLL configuration */
    RCC->CFGR &= (uint32_t)((uint32_t)~(RCC_CFGR_PLLSRC | RCC_CFGR_PLLMUL |
 80004b6:	4a18      	ldr	r2, [pc, #96]	; (8000518 <SetSysClock+0x114>)
 80004b8:	4b17      	ldr	r3, [pc, #92]	; (8000518 <SetSysClock+0x114>)
 80004ba:	689b      	ldr	r3, [r3, #8]
 80004bc:	f423 037d 	bic.w	r3, r3, #16580608	; 0xfd0000
 80004c0:	6093      	str	r3, [r2, #8]
                                        RCC_CFGR_PLLDIV));
    RCC->CFGR |= (uint32_t)(RCC_CFGR_PLLSRC_HSE | RCC_CFGR_PLLMUL12 | RCC_CFGR_PLLDIV3);
 80004c2:	4a15      	ldr	r2, [pc, #84]	; (8000518 <SetSysClock+0x114>)
 80004c4:	4b14      	ldr	r3, [pc, #80]	; (8000518 <SetSysClock+0x114>)
 80004c6:	689b      	ldr	r3, [r3, #8]
 80004c8:	f443 0311 	orr.w	r3, r3, #9502720	; 0x910000
 80004cc:	6093      	str	r3, [r2, #8]

    /* Enable PLL */
    RCC->CR |= RCC_CR_PLLON;
 80004ce:	4a12      	ldr	r2, [pc, #72]	; (8000518 <SetSysClock+0x114>)
 80004d0:	4b11      	ldr	r3, [pc, #68]	; (8000518 <SetSysClock+0x114>)
 80004d2:	681b      	ldr	r3, [r3, #0]
 80004d4:	f043 7380 	orr.w	r3, r3, #16777216	; 0x1000000
 80004d8:	6013      	str	r3, [r2, #0]

    /* Wait till PLL is ready */
    while((RCC->CR & RCC_CR_PLLRDY) == 0)
 80004da:	bf00      	nop
 80004dc:	4b0e      	ldr	r3, [pc, #56]	; (8000518 <SetSysClock+0x114>)
 80004de:	681b      	ldr	r3, [r3, #0]
 80004e0:	f003 7300 	and.w	r3, r3, #33554432	; 0x2000000
 80004e4:	2b00      	cmp	r3, #0
 80004e6:	d0f9      	beq.n	80004dc <SetSysClock+0xd8>
    {
    }
        
    /* Select PLL as system clock source */
    RCC->CFGR &= (uint32_t)((uint32_t)~(RCC_CFGR_SW));
 80004e8:	4a0b      	ldr	r2, [pc, #44]	; (8000518 <SetSysClock+0x114>)
 80004ea:	4b0b      	ldr	r3, [pc, #44]	; (8000518 <SetSysClock+0x114>)
 80004ec:	689b      	ldr	r3, [r3, #8]
 80004ee:	f023 0303 	bic.w	r3, r3, #3
 80004f2:	6093      	str	r3, [r2, #8]
    RCC->CFGR |= (uint32_t)RCC_CFGR_SW_PLL;
 80004f4:	4a08      	ldr	r2, [pc, #32]	; (8000518 <SetSysClock+0x114>)
 80004f6:	4b08      	ldr	r3, [pc, #32]	; (8000518 <SetSysClock+0x114>)
 80004f8:	689b      	ldr	r3, [r3, #8]
 80004fa:	f043 0303 	orr.w	r3, r3, #3
 80004fe:	6093      	str	r3, [r2, #8]

    /* Wait till PLL is used as system clock source */
    while ((RCC->CFGR & (uint32_t)RCC_CFGR_SWS) != (uint32_t)RCC_CFGR_SWS_PLL)
 8000500:	bf00      	nop
 8000502:	4b05      	ldr	r3, [pc, #20]	; (8000518 <SetSysClock+0x114>)
 8000504:	689b      	ldr	r3, [r3, #8]
 8000506:	f003 030c 	and.w	r3, r3, #12
 800050a:	2b0c      	cmp	r3, #12
 800050c:	d1f9      	bne.n	8000502 <SetSysClock+0xfe>
  else
  {
    /* If HSE fails to start-up, the application will have wrong clock
       configuration. User can add here some code to deal with this error */
  }
}
 800050e:	bf00      	nop
 8000510:	370c      	adds	r7, #12
 8000512:	46bd      	mov	sp, r7
 8000514:	bc80      	pop	{r7}
 8000516:	4770      	bx	lr
 8000518:	40023800 	.word	0x40023800
 800051c:	40023c00 	.word	0x40023c00
 8000520:	40007000 	.word	0x40007000

08000524 <__libc_init_array>:
 8000524:	4b0e      	ldr	r3, [pc, #56]	; (8000560 <__libc_init_array+0x3c>)
 8000526:	b570      	push	{r4, r5, r6, lr}
 8000528:	461e      	mov	r6, r3
 800052a:	4c0e      	ldr	r4, [pc, #56]	; (8000564 <__libc_init_array+0x40>)
 800052c:	2500      	movs	r5, #0
 800052e:	1ae4      	subs	r4, r4, r3
 8000530:	10a4      	asrs	r4, r4, #2
 8000532:	42a5      	cmp	r5, r4
 8000534:	d004      	beq.n	8000540 <__libc_init_array+0x1c>
 8000536:	f856 3025 	ldr.w	r3, [r6, r5, lsl #2]
 800053a:	4798      	blx	r3
 800053c:	3501      	adds	r5, #1
 800053e:	e7f8      	b.n	8000532 <__libc_init_array+0xe>
 8000540:	f000 f816 	bl	8000570 <_init>
 8000544:	4b08      	ldr	r3, [pc, #32]	; (8000568 <__libc_init_array+0x44>)
 8000546:	4c09      	ldr	r4, [pc, #36]	; (800056c <__libc_init_array+0x48>)
 8000548:	461e      	mov	r6, r3
 800054a:	1ae4      	subs	r4, r4, r3
 800054c:	10a4      	asrs	r4, r4, #2
 800054e:	2500      	movs	r5, #0
 8000550:	42a5      	cmp	r5, r4
 8000552:	d004      	beq.n	800055e <__libc_init_array+0x3a>
 8000554:	f856 3025 	ldr.w	r3, [r6, r5, lsl #2]
 8000558:	4798      	blx	r3
 800055a:	3501      	adds	r5, #1
 800055c:	e7f8      	b.n	8000550 <__libc_init_array+0x2c>
 800055e:	bd70      	pop	{r4, r5, r6, pc}
 8000560:	08000588 	.word	0x08000588
 8000564:	08000588 	.word	0x08000588
 8000568:	08000588 	.word	0x08000588
 800056c:	0800058c 	.word	0x0800058c

08000570 <_init>:
 8000570:	b5f8      	push	{r3, r4, r5, r6, r7, lr}
 8000572:	bf00      	nop
 8000574:	bcf8      	pop	{r3, r4, r5, r6, r7}
 8000576:	bc08      	pop	{r3}
 8000578:	469e      	mov	lr, r3
 800057a:	4770      	bx	lr

0800057c <_fini>:
 800057c:	b5f8      	push	{r3, r4, r5, r6, r7, lr}
 800057e:	bf00      	nop
 8000580:	bcf8      	pop	{r3, r4, r5, r6, r7}
 8000582:	bc08      	pop	{r3}
 8000584:	469e      	mov	lr, r3
 8000586:	4770      	bx	lr
